target datalayout = "e-m:e-p270:32:32-p271:32:32-p272:64:64-i64:64-i128:128-f80:128-n8:16:32:64-S128"
target triple = "x86_64-pc-linux-gnu"

%"class.boost::core::basic_string_view" = type { ptr, i64 }

; Function Attrs: mustprogress nounwind uwtable
define linkonce_odr hidden noundef signext i8 @_ZN5boost4urls7grammar6detail8to_lowerEc(i8 noundef signext %0) #2 comdat {
  %2 = alloca i8, align 1
  store i8 %0, ptr %2, align 1, !tbaa !7
  %3 = load i8, ptr %2, align 1, !tbaa !7
  %4 = sext i8 %3 to i32
  %5 = icmp sge i32 %4, 65
  br i1 %5, label %6, label %15

6:                                                ; preds = %1
  %7 = load i8, ptr %2, align 1, !tbaa !7
  %8 = sext i8 %7 to i32
  %9 = icmp sle i32 %8, 90
  br i1 %9, label %10, label %15

10:                                               ; preds = %6
  %11 = load i8, ptr %2, align 1, !tbaa !7
  %12 = sext i8 %11 to i32
  %13 = add nsw i32 %12, 97
  %14 = sub nsw i32 %13, 65
  br label %18

15:                                               ; preds = %6, %1
  %16 = load i8, ptr %2, align 1, !tbaa !7
  %17 = sext i8 %16 to i32
  br label %18

18:                                               ; preds = %15, %10
  %19 = phi i32 [ %14, %10 ], [ %17, %15 ]
  %20 = trunc i32 %19 to i8
  ret i8 %20
}

; Function Attrs: noinline noreturn nounwind uwtable
define linkonce_odr hidden void @__clang_call_terminate(ptr noundef %0) #0 comdat {
  %2 = call ptr @__cxa_begin_catch(ptr %0) #16
  call void @_ZSt9terminatev() #17
  unreachable
}

; Function Attrs: mustprogress nounwind uwtable
define linkonce_odr hidden noundef signext i8 @_ZN5boost4urls7grammar8to_lowerEc(i8 noundef signext %0) #2 comdat {
  %2 = alloca i8, align 1
  store i8 %0, ptr %2, align 1, !tbaa !7
  %3 = load i8, ptr %2, align 1, !tbaa !7
  %4 = call noundef signext i8 @_ZN5boost4urls7grammar6detail8to_lowerEc(i8 noundef signext %3) #16
  ret i8 %4
}

; Function Attrs: mustprogress nounwind uwtable
define linkonce_odr hidden noundef nonnull align 1 dereferenceable(1) ptr @_ZNK5boost4core17basic_string_viewIcEixEm(ptr noundef nonnull align 8 dereferenceable(16) %0, i64 noundef %1) #2 comdat align 2 {
  %3 = alloca ptr, align 8
  %4 = alloca i64, align 8
  store ptr %0, ptr %3, align 8, !tbaa !3
  store i64 %1, ptr %4, align 8, !tbaa !8
  %5 = load ptr, ptr %3, align 8
  %6 = getelementptr inbounds nuw %"class.boost::core::basic_string_view", ptr %5, i32 0, i32 0
  %7 = load ptr, ptr %6, align 8, !tbaa !10
  %8 = load i64, ptr %4, align 8, !tbaa !8
  %9 = getelementptr inbounds nuw i8, ptr %7, i64 %8
  ret ptr %9
}

; Function Attrs: inlinehint mustprogress nounwind uwtable
define linkonce_odr noundef nonnull align 8 dereferenceable(8) ptr @_ZSt3minImERKT_S2_S2_(ptr noundef nonnull align 8 dereferenceable(8) %0, ptr noundef nonnull align 8 dereferenceable(8) %1) #6 comdat {
  %3 = alloca ptr, align 8
  %4 = alloca ptr, align 8
  %5 = alloca ptr, align 8
  store ptr %0, ptr %4, align 8, !tbaa !3
  store ptr %1, ptr %5, align 8, !tbaa !3
  %6 = load ptr, ptr %5, align 8, !tbaa !3
  %7 = load i64, ptr %6, align 8, !tbaa !8
  %8 = load ptr, ptr %4, align 8, !tbaa !3
  %9 = load i64, ptr %8, align 8, !tbaa !8
  %10 = icmp ult i64 %7, %9
  br i1 %10, label %11, label %13

11:                                               ; preds = %2
  %12 = load ptr, ptr %5, align 8, !tbaa !3
  store ptr %12, ptr %3, align 8
  br label %15

13:                                               ; preds = %2
  %14 = load ptr, ptr %4, align 8, !tbaa !3
  store ptr %14, ptr %3, align 8
  br label %15

15:                                               ; preds = %13, %11
  %16 = load ptr, ptr %3, align 8
  ret ptr %16
}

; Function Attrs: mustprogress nounwind uwtable
define linkonce_odr hidden noundef i64 @_ZNK5boost4core17basic_string_viewIcE4sizeEv(ptr noundef nonnull align 8 dereferenceable(16) %0) #2 comdat align 2 {
  %2 = alloca ptr, align 8
  store ptr %0, ptr %2, align 8, !tbaa !3
  %3 = load ptr, ptr %2, align 8
  %4 = getelementptr inbounds nuw %"class.boost::core::basic_string_view", ptr %3, i32 0, i32 1
  %5 = load i64, ptr %4, align 8, !tbaa !12
  ret i64 %5
}

; Function Attrs: mustprogress nounwind uwtable
define hidden noundef i32 @_ZN5boost4urls6detail10ci_compareENS_4core17basic_string_viewIcEES4_(ptr %0, i64 %1, ptr %2, i64 %3) #2 personality ptr @__gxx_personality_v0 {
  %5 = alloca i32, align 4
  %6 = alloca %"class.boost::core::basic_string_view", align 8
  %7 = alloca %"class.boost::core::basic_string_view", align 8
  %8 = alloca i64, align 8
  %9 = alloca i64, align 8
  %10 = alloca i64, align 8
  %11 = alloca i64, align 8
  %12 = alloca i32, align 4
  %13 = alloca i8, align 1
  %14 = alloca i8, align 1
  %15 = getelementptr inbounds nuw { ptr, i64 }, ptr %6, i32 0, i32 0
  store ptr %0, ptr %15, align 8
  %16 = getelementptr inbounds nuw { ptr, i64 }, ptr %6, i32 0, i32 1
  store i64 %1, ptr %16, align 8
  %17 = getelementptr inbounds nuw { ptr, i64 }, ptr %7, i32 0, i32 0
  store ptr %2, ptr %17, align 8
  %18 = getelementptr inbounds nuw { ptr, i64 }, ptr %7, i32 0, i32 1
  store i64 %3, ptr %18, align 8
  call void @llvm.lifetime.start.p0(i64 8, ptr %8) #16
  call void @llvm.lifetime.start.p0(i64 8, ptr %9) #16
  %19 = call noundef i64 @_ZNK5boost4core17basic_string_viewIcE4sizeEv(ptr noundef nonnull align 8 dereferenceable(16) %6) #16
  store i64 %19, ptr %9, align 8, !tbaa !8
  call void @llvm.lifetime.start.p0(i64 8, ptr %10) #16
  %20 = call noundef i64 @_ZNK5boost4core17basic_string_viewIcE4sizeEv(ptr noundef nonnull align 8 dereferenceable(16) %7) #16
  store i64 %20, ptr %10, align 8, !tbaa !8
  %21 = invoke noundef nonnull align 8 dereferenceable(8) ptr @_ZSt3minImERKT_S2_S2_(ptr noundef nonnull align 8 dereferenceable(8) %9, ptr noundef nonnull align 8 dereferenceable(8) %10)
          to label %22 unwind label %73

22:                                               ; preds = %4
  %23 = load i64, ptr %21, align 8, !tbaa !8
  call void @llvm.lifetime.end.p0(i64 8, ptr %10) #16
  call void @llvm.lifetime.end.p0(i64 8, ptr %9) #16
  store i64 %23, ptr %8, align 8, !tbaa !8
  call void @llvm.lifetime.start.p0(i64 8, ptr %11) #16
  store i64 0, ptr %11, align 8, !tbaa !8
  br label %24

24:                                               ; preds = %55, %22
  %25 = load i64, ptr %11, align 8, !tbaa !8
  %26 = load i64, ptr %8, align 8, !tbaa !8
  %27 = icmp ult i64 %25, %26
  br i1 %27, label %29, label %28

28:                                               ; preds = %24
  store i32 2, ptr %12, align 4
  br label %58

29:                                               ; preds = %24
  call void @llvm.lifetime.start.p0(i64 1, ptr %13) #16
  %30 = load i64, ptr %11, align 8, !tbaa !8
  %31 = call noundef nonnull align 1 dereferenceable(1) ptr @_ZNK5boost4core17basic_string_viewIcEixEm(ptr noundef nonnull align 8 dereferenceable(16) %6, i64 noundef %30) #16
  %32 = load i8, ptr %31, align 1, !tbaa !7
  %33 = call noundef signext i8 @_ZN5boost4urls7grammar8to_lowerEc(i8 noundef signext %32) #16
  store i8 %33, ptr %13, align 1, !tbaa !7
  call void @llvm.lifetime.start.p0(i64 1, ptr %14) #16
  %34 = load i64, ptr %11, align 8, !tbaa !8
  %35 = call noundef nonnull align 1 dereferenceable(1) ptr @_ZNK5boost4core17basic_string_viewIcEixEm(ptr noundef nonnull align 8 dereferenceable(16) %7, i64 noundef %34) #16
  %36 = load i8, ptr %35, align 1, !tbaa !7
  %37 = call noundef signext i8 @_ZN5boost4urls7grammar8to_lowerEc(i8 noundef signext %36) #16
  store i8 %37, ptr %14, align 1, !tbaa !7
  %38 = load i8, ptr %13, align 1, !tbaa !7
  %39 = sext i8 %38 to i32
  %40 = load i8, ptr %14, align 1, !tbaa !7
  %41 = sext i8 %40 to i32
  %42 = icmp slt i32 %39, %41
  br i1 %42, label %43, label %44

43:                                               ; preds = %29
  store i32 -1, ptr %5, align 4
  store i32 1, ptr %12, align 4
  br label %52

44:                                               ; preds = %29
  %45 = load i8, ptr %14, align 1, !tbaa !7
  %46 = sext i8 %45 to i32
  %47 = load i8, ptr %13, align 1, !tbaa !7
  %48 = sext i8 %47 to i32
  %49 = icmp slt i32 %46, %48
  br i1 %49, label %50, label %51

50:                                               ; preds = %44
  store i32 1, ptr %5, align 4
  store i32 1, ptr %12, align 4
  br label %52

51:                                               ; preds = %44
  store i32 0, ptr %12, align 4
  br label %52

52:                                               ; preds = %51, %50, %43
  call void @llvm.lifetime.end.p0(i64 1, ptr %14) #16
  call void @llvm.lifetime.end.p0(i64 1, ptr %13) #16
  %53 = load i32, ptr %12, align 4
  switch i32 %53, label %58 [
    i32 0, label %54
  ]

54:                                               ; preds = %52
  br label %55

55:                                               ; preds = %54
  %56 = load i64, ptr %11, align 8, !tbaa !8
  %57 = add i64 %56, 1
  store i64 %57, ptr %11, align 8, !tbaa !8
  br label %24, !llvm.loop !22

58:                                               ; preds = %52, %28
  call void @llvm.lifetime.end.p0(i64 8, ptr %11) #16
  %59 = load i32, ptr %12, align 4
  switch i32 %59, label %71 [
    i32 2, label %60
  ]

60:                                               ; preds = %58
  %61 = call noundef i64 @_ZNK5boost4core17basic_string_viewIcE4sizeEv(ptr noundef nonnull align 8 dereferenceable(16) %6) #16
  %62 = call noundef i64 @_ZNK5boost4core17basic_string_viewIcE4sizeEv(ptr noundef nonnull align 8 dereferenceable(16) %7) #16
  %63 = icmp eq i64 %61, %62
  br i1 %63, label %64, label %65

64:                                               ; preds = %60
  store i32 0, ptr %5, align 4
  store i32 1, ptr %12, align 4
  br label %71

65:                                               ; preds = %60
  %66 = call noundef i64 @_ZNK5boost4core17basic_string_viewIcE4sizeEv(ptr noundef nonnull align 8 dereferenceable(16) %6) #16
  %67 = call noundef i64 @_ZNK5boost4core17basic_string_viewIcE4sizeEv(ptr noundef nonnull align 8 dereferenceable(16) %7) #16
  %68 = icmp ult i64 %66, %67
  br i1 %68, label %69, label %70

69:                                               ; preds = %65
  store i32 -1, ptr %5, align 4
  store i32 1, ptr %12, align 4
  br label %71

70:                                               ; preds = %65
  store i32 1, ptr %5, align 4
  store i32 1, ptr %12, align 4
  br label %71

71:                                               ; preds = %70, %69, %64, %58
  call void @llvm.lifetime.end.p0(i64 8, ptr %8) #16
  %72 = load i32, ptr %5, align 4
  ret i32 %72

73:                                               ; preds = %4
  %74 = landingpad { ptr, i32 }
          catch ptr null
  %75 = extractvalue { ptr, i32 } %74, 0
  call void @__clang_call_terminate(ptr %75) #17
  unreachable
}