; Function Attrs: mustprogress nofree norecurse nosync nounwind willreturn memory(argmem: read) uwtable
define hidden noundef range(i32 -1, 2) i32 @_ZN5boost4urls6detail10ci_compareENS_4core17basic_string_viewIcEES4_(ptr nocapture readonly %0, i64 %1, ptr nocapture readonly %2, i64 %3) local_unnamed_addr #6 personality ptr @__gxx_personality_v0 {
  %.sroa.speculated = tail call i64 @llvm.umin.i64(i64 %3, i64 %1)
  %.not34.not = icmp eq i64 %.sroa.speculated, 0
  br i1 %.not34.not, label %._crit_edge, label %.lr.ph

5:                                                ; preds = %18
  %6 = add nuw i64 %.01335, 1
  %exitcond.not = icmp eq i64 %6, %.sroa.speculated
  br i1 %exitcond.not, label %._crit_edge, label %.lr.ph, !llvm.loop !20

.lr.ph:                                           ; preds = %4, %5
  %.01335 = phi i64 [ %6, %5 ], [ 0, %4 ]
  %7 = getelementptr inbounds nuw i8, ptr %0, i64 %.01335
  %8 = load i8, ptr %7, align 1, !tbaa !9
  %9 = add i8 %8, -65
  %or.cond.i.i = icmp ult i8 %9, 26
  %10 = add nuw nsw i8 %8, 32
  %11 = select i1 %or.cond.i.i, i8 %10, i8 %8
  %12 = getelementptr inbounds nuw i8, ptr %2, i64 %.01335
  %13 = load i8, ptr %12, align 1, !tbaa !9
  %14 = add i8 %13, -65
  %or.cond.i.i19 = icmp ult i8 %14, 26
  %15 = add nuw nsw i8 %13, 32
  %16 = select i1 %or.cond.i.i19, i8 %15, i8 %13
  %17 = icmp slt i8 %11, %16
  br i1 %17, label %.thread31, label %18

18:                                               ; preds = %.lr.ph
  %.not33 = icmp slt i8 %16, %11
  br i1 %.not33, label %.thread31, label %5

._crit_edge:                                      ; preds = %5, %4
  %19 = icmp eq i64 %1, %3
  br i1 %19, label %.thread31, label %20

20:                                               ; preds = %._crit_edge
  %21 = icmp ult i64 %1, %3
  %.18 = select i1 %21, i32 -1, i32 1
  br label %.thread31

.thread31:                                        ; preds = %.lr.ph, %18, %20, %._crit_edge
  %.3 = phi i32 [ 0, %._crit_edge ], [ %.18, %20 ], [ -1, %.lr.ph ], [ 1, %18 ]
  ret i32 %.3
}